target datalayout = "e-m:e-p270:32:32-p271:32:32-p272:64:64-i64:64-i128:128-f80:128-n8:16:32:64-S128"
target triple = "x86_64-pc-linux-gnu"

%struct.gmx_ana_selmethod_t = type { ptr, i32, i32, i32, ptr, ptr, ptr, ptr, ptr, ptr, ptr, ptr, ptr, %struct.gmx_ana_selmethod_help_t }
%struct.gmx_ana_selmethod_help_t = type { ptr, ptr, i32, ptr }
%struct.gmx_ana_index_t = type { i32, ptr, i32 }
%struct.t_methoddata_kweval = type { ptr, ptr, %struct.gmx_ana_index_t, %struct.gmx_ana_pos_t }
%struct.gmx_ana_pos_t = type <{ ptr, ptr, ptr, %struct.gmx_ana_indexmap_t, i32, [4 x i8] }>
%struct.gmx_ana_indexmap_t = type { i32, ptr, ptr, %struct.t_blocka, ptr, %struct.t_blocka, i8 }
%struct.t_blocka = type { i32, ptr, i32, ptr, i32, i32 }

; Function Attrs: mustprogress uwtable
define internal void @_ZL17init_frame_kwevalRKN3gmx20SelMethodEvalContextEPv(ptr noundef nonnull align 8 dereferenceable(24) %0, ptr noundef %1) #0 {
  %3 = alloca ptr, align 8
  %4 = alloca ptr, align 8
  %5 = alloca ptr, align 8
  store ptr %0, ptr %3, align 8, !tbaa !27
  store ptr %1, ptr %4, align 8, !tbaa !15
  call void @llvm.lifetime.start.p0(i64 8, ptr %5) #22
  %6 = load ptr, ptr %4, align 8, !tbaa !15
  store ptr %6, ptr %5, align 8, !tbaa !1216
  %7 = load ptr, ptr %5, align 8, !tbaa !1216
  %8 = getelementptr inbounds nuw %struct.t_methoddata_kweval, ptr %7, i32 0, i32 0
  %9 = load ptr, ptr %8, align 8, !tbaa !1218
  %10 = getelementptr inbounds nuw %struct.gmx_ana_selmethod_t, ptr %9, i32 0, i32 10
  %11 = load ptr, ptr %10, align 8, !tbaa !1229
  %12 = load ptr, ptr %3, align 8, !tbaa !27
  %13 = load ptr, ptr %5, align 8, !tbaa !1216
  %14 = getelementptr inbounds nuw %struct.t_methoddata_kweval, ptr %13, i32 0, i32 1
  %15 = load ptr, ptr %14, align 8, !tbaa !1324
  call void %11(ptr noundef nonnull align 8 dereferenceable(24) %12, ptr noundef %15)
  call void @llvm.lifetime.end.p0(i64 8, ptr %5) #22
  ret void
}