; Function Attrs: mustprogress uwtable
define internal void @_ZL17init_frame_kwevalRKN3gmx20SelMethodEvalContextEPv(ptr noundef nonnull align 8 dereferenceable(24) %0, ptr noundef readonly captures(none) %1) #0 {
  %3 = load ptr, ptr %1, align 8, !tbaa !823
  %4 = getelementptr inbounds nuw i8, ptr %3, i64 72
  %5 = load ptr, ptr %4, align 8, !tbaa !837
  %6 = getelementptr inbounds nuw i8, ptr %1, i64 8
  %7 = load ptr, ptr %6, align 8, !tbaa !830
  tail call void %5(ptr noundef nonnull align 8 dereferenceable(24) %0, ptr noundef %7)
  ret void
}